target datalayout = "e-m:e-p270:32:32-p271:32:32-p272:64:64-i64:64-i128:128-f80:128-n8:16:32:64-S128"
target triple = "x86_64-pc-linux-gnu"

%struct.blockProperties_t = type { i32, i32 }

; Function Attrs: nounwind uwtable
define internal i32 @ERR_isError(i64 noundef %0) #0 {
  %2 = alloca i64, align 8
  store i64 %0, ptr %2, align 8, !tbaa !3
  %3 = load i64, ptr %2, align 8, !tbaa !3
  %4 = icmp ugt i64 %3, -120
  %5 = zext i1 %4 to i32
  ret i32 %5
}

; Function Attrs: nounwind uwtable
define internal i64 @ZSTD_copyUncompressedBlock(ptr noundef %0, i64 noundef %1, ptr noundef %2, i64 noundef %3) #0 {
  %5 = alloca i64, align 8
  %6 = alloca ptr, align 8
  %7 = alloca i64, align 8
  %8 = alloca ptr, align 8
  %9 = alloca i64, align 8
  store ptr %0, ptr %6, align 8, !tbaa !7
  store i64 %1, ptr %7, align 8, !tbaa !3
  store ptr %2, ptr %8, align 8, !tbaa !7
  store i64 %3, ptr %9, align 8, !tbaa !3
  %10 = load i64, ptr %9, align 8, !tbaa !3
  %11 = load i64, ptr %7, align 8, !tbaa !3
  %12 = icmp ugt i64 %10, %11
  br i1 %12, label %13, label %14

13:                                               ; preds = %4
  store i64 -70, ptr %5, align 8
  br label %23

14:                                               ; preds = %4
  %15 = load i64, ptr %9, align 8, !tbaa !3
  %16 = icmp ugt i64 %15, 0
  br i1 %16, label %17, label %21

17:                                               ; preds = %14
  %18 = load ptr, ptr %6, align 8, !tbaa !7
  %19 = load ptr, ptr %8, align 8, !tbaa !7
  %20 = load i64, ptr %9, align 8, !tbaa !3
  call void @llvm.memcpy.p0.p0.i64(ptr align 1 %18, ptr align 1 %19, i64 %20, i1 false)
  br label %21

21:                                               ; preds = %17, %14
  %22 = load i64, ptr %9, align 8, !tbaa !3
  store i64 %22, ptr %5, align 8
  br label %23

23:                                               ; preds = %21, %13
  %24 = load i64, ptr %5, align 8
  ret i64 %24
}

; Function Attrs: nounwind uwtable
define i32 @ZSTDv01_isError(i64 noundef %0) #0 {
  %2 = alloca i64, align 8
  store i64 %0, ptr %2, align 8, !tbaa !3
  %3 = load i64, ptr %2, align 8, !tbaa !3
  %4 = call i32 @ERR_isError(i64 noundef %3)
  ret i32 %4
}

; Function Attrs: nounwind uwtable
define internal i64 @ZSTDv01_getcBlockSize(ptr noundef %0, i64 noundef %1, ptr noundef %2) #0 {
  %4 = alloca i64, align 8
  %5 = alloca ptr, align 8
  %6 = alloca i64, align 8
  %7 = alloca ptr, align 8
  %8 = alloca ptr, align 8
  %9 = alloca i8, align 1
  %10 = alloca i32, align 4
  %11 = alloca i32, align 4
  store ptr %0, ptr %5, align 8, !tbaa !7
  store i64 %1, ptr %6, align 8, !tbaa !3
  store ptr %2, ptr %7, align 8, !tbaa !7
  call void @llvm.lifetime.start.p0(i64 8, ptr %8) #8
  %12 = load ptr, ptr %5, align 8, !tbaa !7
  store ptr %12, ptr %8, align 8, !tbaa !9
  call void @llvm.lifetime.start.p0(i64 1, ptr %9) #8
  call void @llvm.lifetime.start.p0(i64 4, ptr %10) #8
  %13 = load i64, ptr %6, align 8, !tbaa !3
  %14 = icmp ult i64 %13, 3
  br i1 %14, label %15, label %16

15:                                               ; preds = %3
  store i64 -72, ptr %4, align 8
  store i32 1, ptr %11, align 4
  br label %66

16:                                               ; preds = %3
  %17 = load ptr, ptr %8, align 8, !tbaa !9
  %18 = load i8, ptr %17, align 1, !tbaa !15
  store i8 %18, ptr %9, align 1, !tbaa !15
  %19 = load ptr, ptr %8, align 8, !tbaa !9
  %20 = getelementptr inbounds i8, ptr %19, i64 2
  %21 = load i8, ptr %20, align 1, !tbaa !15
  %22 = zext i8 %21 to i32
  %23 = load ptr, ptr %8, align 8, !tbaa !9
  %24 = getelementptr inbounds i8, ptr %23, i64 1
  %25 = load i8, ptr %24, align 1, !tbaa !15
  %26 = zext i8 %25 to i32
  %27 = shl i32 %26, 8
  %28 = add nsw i32 %22, %27
  %29 = load ptr, ptr %8, align 8, !tbaa !9
  %30 = getelementptr inbounds i8, ptr %29, i64 0
  %31 = load i8, ptr %30, align 1, !tbaa !15
  %32 = zext i8 %31 to i32
  %33 = and i32 %32, 7
  %34 = shl i32 %33, 16
  %35 = add nsw i32 %28, %34
  store i32 %35, ptr %10, align 4, !tbaa !11
  %36 = load i8, ptr %9, align 1, !tbaa !15
  %37 = zext i8 %36 to i32
  %38 = ashr i32 %37, 6
  %39 = load ptr, ptr %7, align 8, !tbaa !7
  %40 = getelementptr inbounds nuw %struct.blockProperties_t, ptr %39, i32 0, i32 0
  store i32 %38, ptr %40, align 4, !tbaa !13
  %41 = load ptr, ptr %7, align 8, !tbaa !7
  %42 = getelementptr inbounds nuw %struct.blockProperties_t, ptr %41, i32 0, i32 0
  %43 = load i32, ptr %42, align 4, !tbaa !13
  %44 = icmp eq i32 %43, 2
  br i1 %44, label %45, label %47

45:                                               ; preds = %16
  %46 = load i32, ptr %10, align 4, !tbaa !11
  br label %48

47:                                               ; preds = %16
  br label %48

48:                                               ; preds = %47, %45
  %49 = phi i32 [ %46, %45 ], [ 0, %47 ]
  %50 = load ptr, ptr %7, align 8, !tbaa !7
  %51 = getelementptr inbounds nuw %struct.blockProperties_t, ptr %50, i32 0, i32 1
  store i32 %49, ptr %51, align 4, !tbaa !16
  %52 = load ptr, ptr %7, align 8, !tbaa !7
  %53 = getelementptr inbounds nuw %struct.blockProperties_t, ptr %52, i32 0, i32 0
  %54 = load i32, ptr %53, align 4, !tbaa !13
  %55 = icmp eq i32 %54, 3
  br i1 %55, label %56, label %57

56:                                               ; preds = %48
  store i64 0, ptr %4, align 8
  store i32 1, ptr %11, align 4
  br label %66

57:                                               ; preds = %48
  %58 = load ptr, ptr %7, align 8, !tbaa !7
  %59 = getelementptr inbounds nuw %struct.blockProperties_t, ptr %58, i32 0, i32 0
  %60 = load i32, ptr %59, align 4, !tbaa !13
  %61 = icmp eq i32 %60, 2
  br i1 %61, label %62, label %63

62:                                               ; preds = %57
  store i64 1, ptr %4, align 8
  store i32 1, ptr %11, align 4
  br label %66

63:                                               ; preds = %57
  %64 = load i32, ptr %10, align 4, !tbaa !11
  %65 = zext i32 %64 to i64
  store i64 %65, ptr %4, align 8
  store i32 1, ptr %11, align 4
  br label %66

66:                                               ; preds = %63, %62, %56, %15
  call void @llvm.lifetime.end.p0(i64 4, ptr %10) #8
  call void @llvm.lifetime.end.p0(i64 1, ptr %9) #8
  call void @llvm.lifetime.end.p0(i64 8, ptr %8) #8
  %67 = load i64, ptr %4, align 8
  ret i64 %67
}

; Function Attrs: nounwind uwtable
define internal i32 @ZSTD_readBE32(ptr noundef %0) #0 {
  %2 = alloca ptr, align 8
  %3 = alloca ptr, align 8
  store ptr %0, ptr %2, align 8, !tbaa !7
  call void @llvm.lifetime.start.p0(i64 8, ptr %3) #8
  %4 = load ptr, ptr %2, align 8, !tbaa !7
  store ptr %4, ptr %3, align 8, !tbaa !9
  %5 = load ptr, ptr %3, align 8, !tbaa !9
  %6 = getelementptr inbounds i8, ptr %5, i64 0
  %7 = load i8, ptr %6, align 1, !tbaa !15
  %8 = zext i8 %7 to i32
  %9 = shl i32 %8, 24
  %10 = load ptr, ptr %3, align 8, !tbaa !9
  %11 = getelementptr inbounds i8, ptr %10, i64 1
  %12 = load i8, ptr %11, align 1, !tbaa !15
  %13 = zext i8 %12 to i32
  %14 = shl i32 %13, 16
  %15 = add i32 %9, %14
  %16 = load ptr, ptr %3, align 8, !tbaa !9
  %17 = getelementptr inbounds i8, ptr %16, i64 2
  %18 = load i8, ptr %17, align 1, !tbaa !15
  %19 = zext i8 %18 to i32
  %20 = shl i32 %19, 8
  %21 = add i32 %15, %20
  %22 = load ptr, ptr %3, align 8, !tbaa !9
  %23 = getelementptr inbounds i8, ptr %22, i64 3
  %24 = load i8, ptr %23, align 1, !tbaa !15
  %25 = zext i8 %24 to i32
  %26 = shl i32 %25, 0
  %27 = add i32 %21, %26
  call void @llvm.lifetime.end.p0(i64 8, ptr %3) #8
  ret i32 %27
}

; Function Attrs: nounwind uwtable
define i64 @ZSTDv01_decompressDCtx(ptr noundef %0, ptr noundef %1, i64 noundef %2, ptr noundef %3, i64 noundef %4) #0 {
  %6 = alloca i64, align 8
  %7 = alloca ptr, align 8
  %8 = alloca ptr, align 8
  %9 = alloca i64, align 8
  %10 = alloca ptr, align 8
  %11 = alloca i64, align 8
  %12 = alloca ptr, align 8
  %13 = alloca ptr, align 8
  %14 = alloca ptr, align 8
  %15 = alloca ptr, align 8
  %16 = alloca ptr, align 8
  %17 = alloca i64, align 8
  %18 = alloca i32, align 4
  %19 = alloca i64, align 8
  %20 = alloca %struct.blockProperties_t, align 4
  %21 = alloca i32, align 4
  %22 = alloca i64, align 8
  store ptr %0, ptr %7, align 8, !tbaa !7
  store ptr %1, ptr %8, align 8, !tbaa !7
  store i64 %2, ptr %9, align 8, !tbaa !3
  store ptr %3, ptr %10, align 8, !tbaa !7
  store i64 %4, ptr %11, align 8, !tbaa !3
  call void @llvm.lifetime.start.p0(i64 8, ptr %12) #8
  %23 = load ptr, ptr %10, align 8, !tbaa !7
  store ptr %23, ptr %12, align 8, !tbaa !9
  call void @llvm.lifetime.start.p0(i64 8, ptr %13) #8
  %24 = load ptr, ptr %12, align 8, !tbaa !9
  %25 = load i64, ptr %11, align 8, !tbaa !3
  %26 = getelementptr inbounds nuw i8, ptr %24, i64 %25
  store ptr %26, ptr %13, align 8, !tbaa !9
  call void @llvm.lifetime.start.p0(i64 8, ptr %14) #8
  %27 = load ptr, ptr %8, align 8, !tbaa !7
  store ptr %27, ptr %14, align 8, !tbaa !9
  call void @llvm.lifetime.start.p0(i64 8, ptr %15) #8
  %28 = load ptr, ptr %14, align 8, !tbaa !9
  store ptr %28, ptr %15, align 8, !tbaa !9
  call void @llvm.lifetime.start.p0(i64 8, ptr %16) #8
  %29 = load ptr, ptr %14, align 8, !tbaa !9
  %30 = load i64, ptr %9, align 8, !tbaa !3
  %31 = getelementptr inbounds nuw i8, ptr %29, i64 %30
  store ptr %31, ptr %16, align 8, !tbaa !9
  call void @llvm.lifetime.start.p0(i64 8, ptr %17) #8
  %32 = load i64, ptr %11, align 8, !tbaa !3
  store i64 %32, ptr %17, align 8, !tbaa !3
  call void @llvm.lifetime.start.p0(i64 4, ptr %18) #8
  call void @llvm.lifetime.start.p0(i64 8, ptr %19) #8
  store i64 0, ptr %19, align 8, !tbaa !3
  call void @llvm.lifetime.start.p0(i64 8, ptr %20) #8
  %33 = load i64, ptr %11, align 8, !tbaa !3
  %34 = icmp ult i64 %33, 7
  br i1 %34, label %35, label %36

35:                                               ; preds = %5
  store i64 -72, ptr %6, align 8
  store i32 1, ptr %21, align 4
  br label %130

36:                                               ; preds = %5
  %37 = load ptr, ptr %10, align 8, !tbaa !7
  %38 = call i32 @ZSTD_readBE32(ptr noundef %37)
  store i32 %38, ptr %18, align 4, !tbaa !11
  %39 = load i32, ptr %18, align 4, !tbaa !11
  %40 = icmp ne i32 %39, -47205090
  br i1 %40, label %41, label %42

41:                                               ; preds = %36
  store i64 -10, ptr %6, align 8
  store i32 1, ptr %21, align 4
  br label %130

42:                                               ; preds = %36
  %43 = load ptr, ptr %12, align 8, !tbaa !9
  %44 = getelementptr inbounds nuw i8, ptr %43, i64 4
  store ptr %44, ptr %12, align 8, !tbaa !9
  %45 = load i64, ptr %17, align 8, !tbaa !3
  %46 = sub i64 %45, 4
  store i64 %46, ptr %17, align 8, !tbaa !3
  br label %47

47:                                               ; preds = %123, %42
  br label %48

48:                                               ; preds = %47
  call void @llvm.lifetime.start.p0(i64 8, ptr %22) #8
  %49 = load ptr, ptr %12, align 8, !tbaa !9
  %50 = load ptr, ptr %13, align 8, !tbaa !9
  %51 = load ptr, ptr %12, align 8, !tbaa !9
  %52 = ptrtoint ptr %50 to i64
  %53 = ptrtoint ptr %51 to i64
  %54 = sub i64 %52, %53
  %55 = call i64 @ZSTDv01_getcBlockSize(ptr noundef %49, i64 noundef %54, ptr noundef %20)
  store i64 %55, ptr %22, align 8, !tbaa !3
  %56 = load i64, ptr %22, align 8, !tbaa !3
  %57 = call i32 @ZSTDv01_isError(i64 noundef %56)
  %58 = icmp ne i32 %57, 0
  br i1 %58, label %59, label %61

59:                                               ; preds = %48
  %60 = load i64, ptr %22, align 8, !tbaa !3
  store i64 %60, ptr %6, align 8
  store i32 1, ptr %21, align 4
  br label %121

61:                                               ; preds = %48
  %62 = load ptr, ptr %12, align 8, !tbaa !9
  %63 = getelementptr inbounds nuw i8, ptr %62, i64 3
  store ptr %63, ptr %12, align 8, !tbaa !9
  %64 = load i64, ptr %17, align 8, !tbaa !3
  %65 = sub i64 %64, 3
  store i64 %65, ptr %17, align 8, !tbaa !3
  %66 = load i64, ptr %22, align 8, !tbaa !3
  %67 = load i64, ptr %17, align 8, !tbaa !3
  %68 = icmp ugt i64 %66, %67
  br i1 %68, label %69, label %70

69:                                               ; preds = %61
  store i64 -72, ptr %6, align 8
  store i32 1, ptr %21, align 4
  br label %121

70:                                               ; preds = %61
  %71 = getelementptr inbounds nuw %struct.blockProperties_t, ptr %20, i32 0, i32 0
  %72 = load i32, ptr %71, align 4, !tbaa !13
  switch i32 %72, label %100 [
    i32 0, label %73
    i32 1, label %84
    i32 2, label %94
    i32 3, label %95
  ]

73:                                               ; preds = %70
  %74 = load ptr, ptr %7, align 8, !tbaa !7
  %75 = load ptr, ptr %15, align 8, !tbaa !9
  %76 = load ptr, ptr %16, align 8, !tbaa !9
  %77 = load ptr, ptr %15, align 8, !tbaa !9
  %78 = ptrtoint ptr %76 to i64
  %79 = ptrtoint ptr %77 to i64
  %80 = sub i64 %78, %79
  %81 = load ptr, ptr %12, align 8, !tbaa !9
  %82 = load i64, ptr %22, align 8, !tbaa !3
  %83 = call i64 @ZSTD_decompressBlock(ptr noundef %74, ptr noundef %75, i64 noundef %80, ptr noundef %81, i64 noundef %82)
  store i64 %83, ptr %19, align 8, !tbaa !3
  br label %101

84:                                               ; preds = %70
  %85 = load ptr, ptr %15, align 8, !tbaa !9
  %86 = load ptr, ptr %16, align 8, !tbaa !9
  %87 = load ptr, ptr %15, align 8, !tbaa !9
  %88 = ptrtoint ptr %86 to i64
  %89 = ptrtoint ptr %87 to i64
  %90 = sub i64 %88, %89
  %91 = load ptr, ptr %12, align 8, !tbaa !9
  %92 = load i64, ptr %22, align 8, !tbaa !3
  %93 = call i64 @ZSTD_copyUncompressedBlock(ptr noundef %85, i64 noundef %90, ptr noundef %91, i64 noundef %92)
  store i64 %93, ptr %19, align 8, !tbaa !3
  br label %101

94:                                               ; preds = %70
  store i64 -1, ptr %6, align 8
  store i32 1, ptr %21, align 4
  br label %121

95:                                               ; preds = %70
  %96 = load i64, ptr %17, align 8, !tbaa !3
  %97 = icmp ne i64 %96, 0
  br i1 %97, label %98, label %99

98:                                               ; preds = %95
  store i64 -72, ptr %6, align 8
  store i32 1, ptr %21, align 4
  br label %121

99:                                               ; preds = %95
  br label %101

100:                                              ; preds = %70
  store i64 -1, ptr %6, align 8
  store i32 1, ptr %21, align 4
  br label %121

101:                                              ; preds = %99, %84, %73
  %102 = load i64, ptr %22, align 8, !tbaa !3
  %103 = icmp eq i64 %102, 0
  br i1 %103, label %104, label %105

104:                                              ; preds = %101
  store i32 3, ptr %21, align 4
  br label %121

105:                                              ; preds = %101
  %106 = load i64, ptr %19, align 8, !tbaa !3
  %107 = call i32 @ZSTDv01_isError(i64 noundef %106)
  %108 = icmp ne i32 %107, 0
  br i1 %108, label %109, label %111

109:                                              ; preds = %105
  %110 = load i64, ptr %19, align 8, !tbaa !3
  store i64 %110, ptr %6, align 8
  store i32 1, ptr %21, align 4
  br label %121

111:                                              ; preds = %105
  %112 = load i64, ptr %19, align 8, !tbaa !3
  %113 = load ptr, ptr %15, align 8, !tbaa !9
  %114 = getelementptr inbounds nuw i8, ptr %113, i64 %112
  store ptr %114, ptr %15, align 8, !tbaa !9
  %115 = load i64, ptr %22, align 8, !tbaa !3
  %116 = load ptr, ptr %12, align 8, !tbaa !9
  %117 = getelementptr inbounds nuw i8, ptr %116, i64 %115
  store ptr %117, ptr %12, align 8, !tbaa !9
  %118 = load i64, ptr %22, align 8, !tbaa !3
  %119 = load i64, ptr %17, align 8, !tbaa !3
  %120 = sub i64 %119, %118
  store i64 %120, ptr %17, align 8, !tbaa !3
  store i32 0, ptr %21, align 4
  br label %121

121:                                              ; preds = %111, %109, %104, %100, %98, %94, %69, %59
  call void @llvm.lifetime.end.p0(i64 8, ptr %22) #8
  %122 = load i32, ptr %21, align 4
  switch i32 %122, label %130 [
    i32 0, label %123
    i32 3, label %124
  ]

123:                                              ; preds = %121
  br label %47

124:                                              ; preds = %121
  %125 = load ptr, ptr %15, align 8, !tbaa !9
  %126 = load ptr, ptr %14, align 8, !tbaa !9
  %127 = ptrtoint ptr %125 to i64
  %128 = ptrtoint ptr %126 to i64
  %129 = sub i64 %127, %128
  store i64 %129, ptr %6, align 8
  store i32 1, ptr %21, align 4
  br label %130

130:                                              ; preds = %124, %121, %41, %35
  call void @llvm.lifetime.end.p0(i64 8, ptr %20) #8
  call void @llvm.lifetime.end.p0(i64 8, ptr %19) #8
  call void @llvm.lifetime.end.p0(i64 4, ptr %18) #8
  call void @llvm.lifetime.end.p0(i64 8, ptr %17) #8
  call void @llvm.lifetime.end.p0(i64 8, ptr %16) #8
  call void @llvm.lifetime.end.p0(i64 8, ptr %15) #8
  call void @llvm.lifetime.end.p0(i64 8, ptr %14) #8
  call void @llvm.lifetime.end.p0(i64 8, ptr %13) #8
  call void @llvm.lifetime.end.p0(i64 8, ptr %12) #8
  %131 = load i64, ptr %6, align 8
  ret i64 %131
}