; Function Attrs: nofree norecurse nosync nounwind memory(readwrite, inaccessiblemem: none) uwtable
define i64 @ZSTDv01_decompressDCtx(ptr noundef captures(none) %0, ptr noundef %1, i64 noundef %2, ptr noundef %3, i64 noundef %4) local_unnamed_addr #1 {
  %6 = getelementptr inbounds nuw i8, ptr %3, i64 %4
  %7 = getelementptr inbounds nuw i8, ptr %1, i64 %2
  %8 = icmp ult i64 %4, 7
  br i1 %8, label %.thread83, label %9

9:                                                ; preds = %5
  %10 = load i8, ptr %3, align 1, !tbaa !3
  %11 = zext i8 %10 to i32
  %12 = shl nuw i32 %11, 24
  %13 = getelementptr inbounds nuw i8, ptr %3, i64 1
  %14 = load i8, ptr %13, align 1, !tbaa !3
  %15 = zext i8 %14 to i32
  %16 = shl nuw nsw i32 %15, 16
  %17 = or disjoint i32 %16, %12
  %18 = getelementptr inbounds nuw i8, ptr %3, i64 2
  %19 = load i8, ptr %18, align 1, !tbaa !3
  %20 = zext i8 %19 to i32
  %21 = shl nuw nsw i32 %20, 8
  %22 = or disjoint i32 %17, %21
  %23 = getelementptr inbounds nuw i8, ptr %3, i64 3
  %24 = load i8, ptr %23, align 1, !tbaa !3
  %25 = zext i8 %24 to i32
  %26 = or disjoint i32 %22, %25
  %.not = icmp eq i32 %26, -47205090
  br i1 %.not, label %.lr.ph, label %.thread83

.lr.ph:                                           ; preds = %9
  %27 = ptrtoint ptr %6 to i64
  %gepdiff = add i64 %4, -4
  %28 = getelementptr inbounds nuw i8, ptr %3, i64 4
  %29 = ptrtoint ptr %7 to i64
  br label %30

30:                                               ; preds = %.lr.ph, %62
  %.050112 = phi ptr [ %28, %.lr.ph ], [ %64, %62 ]
  %.052111 = phi i64 [ %gepdiff, %.lr.ph ], [ %65, %62 ]
  %.054110 = phi ptr [ %1, %.lr.ph ], [ %63, %62 ]
  %31 = load i8, ptr %.050112, align 1, !tbaa !3
  %32 = zext i8 %31 to i32
  %33 = lshr i32 %32, 6
  switch i32 %33, label %34 [
    i32 3, label %.thread73
    i32 2, label %47
  ]

.thread73:                                        ; preds = %30
  %.not61 = icmp eq i64 %.052111, 3
  br i1 %.not61, label %ZSTD_copyUncompressedBlock.exit.ZSTD_copyUncompressedBlock.exit.thread80_crit_edge, label %.thread83

34:                                               ; preds = %30
  %35 = shl nuw nsw i32 %32, 16
  %36 = and i32 %35, 458752
  %37 = getelementptr inbounds nuw i8, ptr %.050112, i64 2
  %38 = load i8, ptr %37, align 1, !tbaa !3
  %39 = zext i8 %38 to i32
  %40 = or disjoint i32 %36, %39
  %41 = getelementptr inbounds nuw i8, ptr %.050112, i64 1
  %42 = load i8, ptr %41, align 1, !tbaa !3
  %43 = zext i8 %42 to i32
  %44 = shl nuw nsw i32 %43, 8
  %45 = or disjoint i32 %44, %40
  %46 = zext nneg i32 %45 to i64
  br label %47

47:                                               ; preds = %30, %34
  %.0.i.ph = phi i64 [ %46, %34 ], [ 1, %30 ]
  %48 = getelementptr inbounds nuw i8, ptr %.050112, i64 3
  %49 = add i64 %.052111, -3
  %50 = icmp ugt i64 %.0.i.ph, %49
  br i1 %50, label %.thread83, label %51

51:                                               ; preds = %47
  switch i32 %33, label %.thread83 [
    i32 0, label %ZSTD_copyUncompressedBlock.exit
    i32 1, label %52
  ]

52:                                               ; preds = %51
  %53 = ptrtoint ptr %.054110 to i64
  %54 = sub i64 %29, %53
  %55 = icmp ugt i64 %.0.i.ph, %54
  br i1 %55, label %.thread83, label %56

56:                                               ; preds = %52
  %.not.i = icmp eq i64 %.0.i.ph, 0
  br i1 %.not.i, label %ZSTD_copyUncompressedBlock.exit.thread80, label %ZSTD_copyUncompressedBlock.exit.thread.thread

ZSTD_copyUncompressedBlock.exit.thread.thread:    ; preds = %56
  tail call void @llvm.memcpy.p0.p0.i64(ptr align 1 %.054110, ptr nonnull readonly align 1 %48, i64 %.0.i.ph, i1 false)
  br label %62

ZSTD_copyUncompressedBlock.exit:                  ; preds = %51
  %57 = ptrtoint ptr %.054110 to i64
  %58 = sub i64 %29, %57
  %59 = tail call fastcc i64 @ZSTD_decompressBlock(ptr noundef %0, ptr noundef %.054110, i64 noundef %58, ptr noundef nonnull %48, i64 noundef %.0.i.ph)
  %60 = icmp eq i64 %.0.i.ph, 0
  br i1 %60, label %ZSTD_copyUncompressedBlock.exit.ZSTD_copyUncompressedBlock.exit.thread80_crit_edge, label %ZSTD_copyUncompressedBlock.exit.thread

ZSTD_copyUncompressedBlock.exit.ZSTD_copyUncompressedBlock.exit.thread80_crit_edge: ; preds = %ZSTD_copyUncompressedBlock.exit, %.thread73
  %.pre = ptrtoint ptr %.054110 to i64
  br label %ZSTD_copyUncompressedBlock.exit.thread80

ZSTD_copyUncompressedBlock.exit.thread:           ; preds = %ZSTD_copyUncompressedBlock.exit
  %61 = icmp ult i64 %59, -119
  br i1 %61, label %62, label %.thread83

62:                                               ; preds = %ZSTD_copyUncompressedBlock.exit.thread.thread, %ZSTD_copyUncompressedBlock.exit.thread
  %.24979103 = phi i64 [ %.0.i.ph, %ZSTD_copyUncompressedBlock.exit.thread.thread ], [ %59, %ZSTD_copyUncompressedBlock.exit.thread ]
  %63 = getelementptr inbounds nuw i8, ptr %.054110, i64 %.24979103
  %64 = getelementptr inbounds nuw i8, ptr %48, i64 %.0.i.ph
  %65 = sub i64 %49, %.0.i.ph
  %66 = ptrtoint ptr %64 to i64
  %67 = sub i64 %27, %66
  %68 = icmp ult i64 %67, 3
  br i1 %68, label %.thread83, label %30

ZSTD_copyUncompressedBlock.exit.thread80:         ; preds = %56, %ZSTD_copyUncompressedBlock.exit.ZSTD_copyUncompressedBlock.exit.thread80_crit_edge
  %.pre-phi = phi i64 [ %.pre, %ZSTD_copyUncompressedBlock.exit.ZSTD_copyUncompressedBlock.exit.thread80_crit_edge ], [ %53, %56 ]
  %69 = ptrtoint ptr %1 to i64
  %70 = sub i64 %.pre-phi, %69
  br label %.thread83

.thread83:                                        ; preds = %47, %51, %ZSTD_copyUncompressedBlock.exit.thread, %52, %62, %.thread73, %9, %5, %ZSTD_copyUncompressedBlock.exit.thread80
  %.0 = phi i64 [ %70, %ZSTD_copyUncompressedBlock.exit.thread80 ], [ -72, %5 ], [ -10, %9 ], [ -72, %.thread73 ], [ -72, %47 ], [ -1, %51 ], [ %59, %ZSTD_copyUncompressedBlock.exit.thread ], [ -70, %52 ], [ -72, %62 ]
  ret i64 %.0
}